target datalayout = "e-m:e-p270:32:32-p271:32:32-p272:64:64-i64:64-i128:128-f80:128-n8:16:32:64-S128"
target triple = "x86_64-pc-linux-gnu"

%struct.Csw_Man_t_ = type { ptr, ptr, ptr, ptr, ptr, ptr, i32, i32, i32, i32, i32, i32, ptr, [4 x ptr], i32, i32, i32, i32, i32, i64, i64, i64, i64 }
%struct.Csw_Cut_t_ = type { ptr, i32, i32, i32, i16, i8, i8, [0 x i32] }
%struct.Aig_Obj_t_ = type { %union.anon, ptr, ptr, i64, i32, i32, %union.anon.0 }
%union.anon = type { ptr }
%union.anon.0 = type { ptr }

; Function Attrs: inlinehint nounwind uwtable
define internal ptr @Csw_CutTruth(ptr noundef %0) #1 {
  %2 = alloca ptr, align 8
  store ptr %0, ptr %2, align 8, !tbaa !8
  %3 = load ptr, ptr %2, align 8, !tbaa !8
  %4 = getelementptr inbounds nuw %struct.Csw_Cut_t_, ptr %3, i32 0, i32 7
  %5 = getelementptr inbounds [0 x i32], ptr %4, i64 0, i64 0
  %6 = load ptr, ptr %2, align 8, !tbaa !8
  %7 = getelementptr inbounds nuw %struct.Csw_Cut_t_, ptr %6, i32 0, i32 5
  %8 = load i8, ptr %7, align 2, !tbaa !26
  %9 = sext i8 %8 to i32
  %10 = sext i32 %9 to i64
  %11 = getelementptr inbounds i32, ptr %5, i64 %10
  ret ptr %11
}

; Function Attrs: inlinehint nounwind uwtable
define internal i32 @Aig_ObjCutSign(i32 noundef %0) #1 {
  %2 = alloca i32, align 4
  store i32 %0, ptr %2, align 4, !tbaa !10
  %3 = load i32, ptr %2, align 4, !tbaa !10
  %4 = and i32 %3, 31
  %5 = shl i32 1, %4
  ret i32 %5
}

; Function Attrs: inlinehint nounwind uwtable
define internal ptr @Csw_CutNext(ptr noundef %0) #1 {
  %2 = alloca ptr, align 8
  store ptr %0, ptr %2, align 8, !tbaa !8
  %3 = load ptr, ptr %2, align 8, !tbaa !8
  %4 = load ptr, ptr %2, align 8, !tbaa !8
  %5 = getelementptr inbounds nuw %struct.Csw_Cut_t_, ptr %4, i32 0, i32 4
  %6 = load i16, ptr %5, align 4, !tbaa !41
  %7 = sext i16 %6 to i32
  %8 = sext i32 %7 to i64
  %9 = getelementptr inbounds i8, ptr %3, i64 %8
  ret ptr %9
}

; Function Attrs: inlinehint nounwind uwtable
define internal ptr @Csw_ObjCuts(ptr noundef %0, ptr noundef %1) #1 {
  %3 = alloca ptr, align 8
  %4 = alloca ptr, align 8
  store ptr %0, ptr %3, align 8, !tbaa !3
  store ptr %1, ptr %4, align 8, !tbaa !31
  %5 = load ptr, ptr %3, align 8, !tbaa !3
  %6 = getelementptr inbounds nuw %struct.Csw_Man_t_, ptr %5, i32 0, i32 3
  %7 = load ptr, ptr %6, align 8, !tbaa !36
  %8 = load ptr, ptr %4, align 8, !tbaa !31
  %9 = getelementptr inbounds nuw %struct.Aig_Obj_t_, ptr %8, i32 0, i32 5
  %10 = load i32, ptr %9, align 4, !tbaa !37
  %11 = sext i32 %10 to i64
  %12 = getelementptr inbounds ptr, ptr %7, i64 %11
  %13 = load ptr, ptr %12, align 8, !tbaa !8
  ret ptr %13
}

; Function Attrs: inlinehint nounwind uwtable
define internal void @Csw_ObjSetCuts(ptr noundef %0, ptr noundef %1, ptr noundef %2) #1 {
  %4 = alloca ptr, align 8
  %5 = alloca ptr, align 8
  %6 = alloca ptr, align 8
  store ptr %0, ptr %4, align 8, !tbaa !3
  store ptr %1, ptr %5, align 8, !tbaa !31
  store ptr %2, ptr %6, align 8, !tbaa !8
  %7 = load ptr, ptr %6, align 8, !tbaa !8
  %8 = load ptr, ptr %4, align 8, !tbaa !3
  %9 = getelementptr inbounds nuw %struct.Csw_Man_t_, ptr %8, i32 0, i32 3
  %10 = load ptr, ptr %9, align 8, !tbaa !36
  %11 = load ptr, ptr %5, align 8, !tbaa !31
  %12 = getelementptr inbounds nuw %struct.Aig_Obj_t_, ptr %11, i32 0, i32 5
  %13 = load i32, ptr %12, align 4, !tbaa !37
  %14 = sext i32 %13 to i64
  %15 = getelementptr inbounds ptr, ptr %10, i64 %14
  store ptr %7, ptr %15, align 8, !tbaa !8
  ret void
}

; Function Attrs: nounwind uwtable
define ptr @Csw_ObjPrepareCuts(ptr noundef %0, ptr noundef %1, i32 noundef %2) #0 {
  %4 = alloca ptr, align 8
  %5 = alloca ptr, align 8
  %6 = alloca i32, align 4
  %7 = alloca ptr, align 8
  %8 = alloca ptr, align 8
  %9 = alloca i32, align 4
  store ptr %0, ptr %4, align 8, !tbaa !3
  store ptr %1, ptr %5, align 8, !tbaa !31
  store i32 %2, ptr %6, align 4, !tbaa !10
  call void @llvm.lifetime.start.p0(i64 8, ptr %7) #6
  call void @llvm.lifetime.start.p0(i64 8, ptr %8) #6
  call void @llvm.lifetime.start.p0(i64 4, ptr %9) #6
  %10 = load ptr, ptr %4, align 8, !tbaa !3
  %11 = getelementptr inbounds nuw %struct.Csw_Man_t_, ptr %10, i32 0, i32 12
  %12 = load ptr, ptr %11, align 8, !tbaa !57
  %13 = call ptr @Aig_MmFixedEntryFetch(ptr noundef %12)
  store ptr %13, ptr %7, align 8, !tbaa !8
  %14 = load ptr, ptr %4, align 8, !tbaa !3
  %15 = load ptr, ptr %5, align 8, !tbaa !31
  %16 = load ptr, ptr %7, align 8, !tbaa !8
  call void @Csw_ObjSetCuts(ptr noundef %14, ptr noundef %15, ptr noundef %16)
  store i32 0, ptr %9, align 4, !tbaa !10
  %17 = load ptr, ptr %4, align 8, !tbaa !3
  %18 = load ptr, ptr %5, align 8, !tbaa !31
  %19 = call ptr @Csw_ObjCuts(ptr noundef %17, ptr noundef %18)
  store ptr %19, ptr %8, align 8, !tbaa !8
  br label %20

20:                                               ; preds = %46, %3
  %21 = load i32, ptr %9, align 4, !tbaa !10
  %22 = load ptr, ptr %4, align 8, !tbaa !3
  %23 = getelementptr inbounds nuw %struct.Csw_Man_t_, ptr %22, i32 0, i32 7
  %24 = load i32, ptr %23, align 4, !tbaa !33
  %25 = icmp slt i32 %21, %24
  br i1 %25, label %26, label %51

26:                                               ; preds = %20
  %27 = load ptr, ptr %8, align 8, !tbaa !8
  %28 = getelementptr inbounds nuw %struct.Csw_Cut_t_, ptr %27, i32 0, i32 6
  store i8 0, ptr %28, align 1, !tbaa !21
  %29 = load ptr, ptr %5, align 8, !tbaa !31
  %30 = getelementptr inbounds nuw %struct.Aig_Obj_t_, ptr %29, i32 0, i32 5
  %31 = load i32, ptr %30, align 4, !tbaa !37
  %32 = load ptr, ptr %8, align 8, !tbaa !8
  %33 = getelementptr inbounds nuw %struct.Csw_Cut_t_, ptr %32, i32 0, i32 3
  store i32 %31, ptr %33, align 8, !tbaa !58
  %34 = load ptr, ptr %4, align 8, !tbaa !3
  %35 = getelementptr inbounds nuw %struct.Csw_Man_t_, ptr %34, i32 0, i32 10
  %36 = load i32, ptr %35, align 8, !tbaa !59
  %37 = trunc i32 %36 to i16
  %38 = load ptr, ptr %8, align 8, !tbaa !8
  %39 = getelementptr inbounds nuw %struct.Csw_Cut_t_, ptr %38, i32 0, i32 4
  store i16 %37, ptr %39, align 4, !tbaa !41
  %40 = load ptr, ptr %4, align 8, !tbaa !3
  %41 = getelementptr inbounds nuw %struct.Csw_Man_t_, ptr %40, i32 0, i32 8
  %42 = load i32, ptr %41, align 8, !tbaa !14
  %43 = trunc i32 %42 to i8
  %44 = load ptr, ptr %8, align 8, !tbaa !8
  %45 = getelementptr inbounds nuw %struct.Csw_Cut_t_, ptr %44, i32 0, i32 5
  store i8 %43, ptr %45, align 2, !tbaa !26
  br label %46

46:                                               ; preds = %26
  %47 = load i32, ptr %9, align 4, !tbaa !10
  %48 = add nsw i32 %47, 1
  store i32 %48, ptr %9, align 4, !tbaa !10
  %49 = load ptr, ptr %8, align 8, !tbaa !8
  %50 = call ptr @Csw_CutNext(ptr noundef %49)
  store ptr %50, ptr %8, align 8, !tbaa !8
  br label %20, !llvm.loop !60

51:                                               ; preds = %20
  %52 = load i32, ptr %6, align 4, !tbaa !10
  %53 = icmp ne i32 %52, 0
  br i1 %53, label %54, label %84

54:                                               ; preds = %51
  %55 = load ptr, ptr %7, align 8, !tbaa !8
  store ptr %55, ptr %8, align 8, !tbaa !8
  %56 = load ptr, ptr %8, align 8, !tbaa !8
  %57 = getelementptr inbounds nuw %struct.Csw_Cut_t_, ptr %56, i32 0, i32 1
  store i32 0, ptr %57, align 8, !tbaa !61
  %58 = load ptr, ptr %5, align 8, !tbaa !31
  %59 = getelementptr inbounds nuw %struct.Aig_Obj_t_, ptr %58, i32 0, i32 5
  %60 = load i32, ptr %59, align 4, !tbaa !37
  %61 = load ptr, ptr %8, align 8, !tbaa !8
  %62 = getelementptr inbounds nuw %struct.Csw_Cut_t_, ptr %61, i32 0, i32 3
  store i32 %60, ptr %62, align 8, !tbaa !58
  %63 = load ptr, ptr %8, align 8, !tbaa !8
  %64 = getelementptr inbounds nuw %struct.Csw_Cut_t_, ptr %63, i32 0, i32 6
  store i8 1, ptr %64, align 1, !tbaa !21
  %65 = load ptr, ptr %5, align 8, !tbaa !31
  %66 = getelementptr inbounds nuw %struct.Aig_Obj_t_, ptr %65, i32 0, i32 5
  %67 = load i32, ptr %66, align 4, !tbaa !37
  %68 = load ptr, ptr %8, align 8, !tbaa !8
  %69 = getelementptr inbounds nuw %struct.Csw_Cut_t_, ptr %68, i32 0, i32 7
  %70 = getelementptr inbounds [0 x i32], ptr %69, i64 0, i64 0
  store i32 %67, ptr %70, align 8, !tbaa !10
  %71 = load ptr, ptr %5, align 8, !tbaa !31
  %72 = getelementptr inbounds nuw %struct.Aig_Obj_t_, ptr %71, i32 0, i32 5
  %73 = load i32, ptr %72, align 4, !tbaa !37
  %74 = call i32 @Aig_ObjCutSign(i32 noundef %73)
  %75 = load ptr, ptr %8, align 8, !tbaa !8
  %76 = getelementptr inbounds nuw %struct.Csw_Cut_t_, ptr %75, i32 0, i32 2
  store i32 %74, ptr %76, align 4, !tbaa !34
  %77 = load ptr, ptr %8, align 8, !tbaa !8
  %78 = call ptr @Csw_CutTruth(ptr noundef %77)
  %79 = load ptr, ptr %4, align 8, !tbaa !3
  %80 = getelementptr inbounds nuw %struct.Csw_Man_t_, ptr %79, i32 0, i32 11
  %81 = load i32, ptr %80, align 4, !tbaa !62
  %82 = sext i32 %81 to i64
  %83 = mul i64 4, %82
  call void @llvm.memset.p0.i64(ptr align 4 %78, i8 -86, i64 %83, i1 false)
  br label %84

84:                                               ; preds = %54, %51
  %85 = load ptr, ptr %7, align 8, !tbaa !8
  call void @llvm.lifetime.end.p0(i64 4, ptr %9) #6
  call void @llvm.lifetime.end.p0(i64 8, ptr %8) #6
  call void @llvm.lifetime.end.p0(i64 8, ptr %7) #6
  ret ptr %85
}