; Function Attrs: nounwind uwtable
define ptr @Csw_ObjPrepareCuts(ptr noundef readonly captures(none) %0, ptr noundef readonly captures(none) %1, i32 noundef %2) local_unnamed_addr #0 {
  %4 = getelementptr inbounds nuw i8, ptr %0, i64 72
  %5 = load ptr, ptr %4, align 8, !tbaa !56
  %6 = tail call ptr @Aig_MmFixedEntryFetch(ptr noundef %5) #9
  %7 = getelementptr i8, ptr %0, i64 24
  %.val31 = load ptr, ptr %7, align 8, !tbaa !29
  %8 = getelementptr i8, ptr %1, i64 36
  %.val32 = load i32, ptr %8, align 4, !tbaa !30
  %9 = sext i32 %.val32 to i64
  %10 = getelementptr inbounds ptr, ptr %.val31, i64 %9
  store ptr %6, ptr %10, align 8, !tbaa !33
  %11 = getelementptr inbounds nuw i8, ptr %0, i64 52
  %12 = load i32, ptr %11, align 4, !tbaa !28
  %13 = icmp sgt i32 %12, 0
  br i1 %13, label %.lr.ph, label %._crit_edge

.lr.ph:                                           ; preds = %3
  %14 = getelementptr inbounds nuw i8, ptr %0, i64 64
  %15 = load i32, ptr %14, align 8, !tbaa !57
  %16 = trunc i32 %15 to i16
  %17 = getelementptr inbounds nuw i8, ptr %0, i64 56
  %18 = load i32, ptr %17, align 8, !tbaa !13
  %19 = trunc i32 %18 to i8
  %20 = sext i16 %16 to i64
  br label %21

21:                                               ; preds = %.lr.ph, %21
  %.034 = phi i32 [ 0, %.lr.ph ], [ %26, %21 ]
  %.02933 = phi ptr [ %6, %.lr.ph ], [ %27, %21 ]
  %22 = getelementptr inbounds nuw i8, ptr %.02933, i64 23
  store i8 0, ptr %22, align 1, !tbaa !24
  %23 = getelementptr inbounds nuw i8, ptr %.02933, i64 16
  store i32 %.val32, ptr %23, align 8, !tbaa !58
  %24 = getelementptr inbounds nuw i8, ptr %.02933, i64 20
  store i16 %16, ptr %24, align 4, !tbaa !37
  %25 = getelementptr inbounds nuw i8, ptr %.02933, i64 22
  store i8 %19, ptr %25, align 2, !tbaa !8
  %26 = add nuw nsw i32 %.034, 1
  %27 = getelementptr inbounds i8, ptr %.02933, i64 %20
  %exitcond.not = icmp eq i32 %26, %12
  br i1 %exitcond.not, label %._crit_edge, label %21, !llvm.loop !59

._crit_edge:                                      ; preds = %21, %3
  %.not = icmp eq i32 %2, 0
  br i1 %.not, label %45, label %28

28:                                               ; preds = %._crit_edge
  %29 = getelementptr inbounds nuw i8, ptr %6, i64 8
  store i32 0, ptr %29, align 8, !tbaa !60
  %30 = getelementptr inbounds nuw i8, ptr %6, i64 16
  store i32 %.val32, ptr %30, align 8, !tbaa !58
  %31 = getelementptr inbounds nuw i8, ptr %6, i64 23
  store i8 1, ptr %31, align 1, !tbaa !24
  %32 = getelementptr inbounds nuw i8, ptr %6, i64 24
  store i32 %.val32, ptr %32, align 8, !tbaa !20
  %33 = load i32, ptr %8, align 4, !tbaa !30
  %34 = and i32 %33, 31
  %35 = shl nuw i32 1, %34
  %36 = getelementptr inbounds nuw i8, ptr %6, i64 12
  store i32 %35, ptr %36, align 4, !tbaa !34
  %37 = getelementptr inbounds nuw i8, ptr %6, i64 22
  %38 = load i8, ptr %37, align 2, !tbaa !8
  %39 = sext i8 %38 to i64
  %40 = getelementptr inbounds i32, ptr %32, i64 %39
  %41 = getelementptr inbounds nuw i8, ptr %0, i64 68
  %42 = load i32, ptr %41, align 4, !tbaa !61
  %43 = sext i32 %42 to i64
  %44 = shl nsw i64 %43, 2
  tail call void @llvm.memset.p0.i64(ptr nonnull align 4 %40, i8 -86, i64 %44, i1 false)
  br label %45

45:                                               ; preds = %28, %._crit_edge
  ret ptr %6
}